Certificate:
    Data:
        Version: 3 (0x2)
        Serial Number: 4096 (0x1000)
    Signature Algorithm: sha256WithRSAEncryption
        Issuer: C=LU, ST=Private, L=Private, O=Cinexpert-test, CN=CinexpertCA-test
        Validity
            Not Before: May 24 09:55:20 2024 GMT
            Not After : May 22 09:55:20 2034 GMT
        Subject: O=CineXpert-test, OU=CineXpert-Local-e-TMS-003-test, CN=CineXpert.local-test
        Subject Public Key Info:
            Public Key Algorithm: rsaEncryption
                RSA Public-Key: (2048 bit)
                Modulus:
                    00:cd:7d:72:dd:4e:86:0b:2e:58:18:c3:f2:61:2d:
                    09:4f:2e:c5:c6:b1:31:d0:0a:a3:17:80:c0:f4:40:
                    d1:c3:dc:81:ba:ec:d0:e2:22:5b:72:0c:89:fe:bf:
                    8a:c9:21:30:8e:8f:ac:ef:08:e3:99:4d:05:bf:6b:
                    6d:ae:71:92:58:4b:11:ad:16:e1:66:5e:34:1b:44:
                    cb:4e:48:0a:f6:7c:3d:7c:73:fc:1d:18:60:67:8b:
                    b6:5f:cc:20:b9:fe:27:12:e2:a6:d4:6f:47:06:62:
                    63:4c:fe:79:f6:63:9c:f4:5f:65:bc:aa:13:34:ba:
                    e5:1e:1a:ea:be:1e:53:08:3a:ab:a1:8b:d8:8a:b0:
                    b1:11:06:3f:70:44:ee:ad:fd:f7:af:d3:d3:35:ff:
                    89:3f:27:52:6e:50:17:c3:8c:da:e8:36:45:c1:30:
                    4b:0f:92:66:5d:04:80:8e:8c:51:6f:15:5b:60:f1:
                    d3:55:a0:39:b4:ec:fd:6e:43:0b:72:02:7b:9c:f5:
                    77:cb:f8:c2:24:35:97:d2:c8:5b:b3:0b:94:1b:48:
                    92:96:85:af:00:b3:f7:5b:4b:68:2e:75:1c:99:3f:
                    12:49:79:13:c3:97:66:36:39:98:b5:70:15:67:c0:
                    ae:8a:3e:45:f9:dc:c3:84:0a:cb:0e:1e:17:5d:72:
                    2c:e7
                Exponent: 65537 (0x10001)
        X509v3 extensions:
            X509v3 Basic Constraints: 
                CA:FALSE
            X509v3 Key Usage: 
                Digital Signature, Non Repudiation, Key Encipherment
            1.3.6.1.4.1.9999.1: 
                ..1
            1.3.6.1.4.1.9999.2: 
                ..1
    Signature Algorithm: sha256WithRSAEncryption
         b0:72:0a:bb:26:ab:bc:6b:9a:6e:38:0a:ef:6e:e6:8e:a3:a7:
         22:51:fe:bf:61:6c:5b:18:a3:a4:9c:8f:11:e7:09:ca:a1:d4:
         64:74:62:e4:7a:0a:9c:be:d2:bf:1b:52:08:fd:16:ea:03:68:
         25:35:af:75:e3:4a:7b:ba:8c:b6:48:ae:c0:bf:82:6c:31:66:
         ab:6e:68:9f:05:73:00:94:21:b6:d2:03:a4:c7:78:7f:15:36:
         0f:7e:7a:91:d0:d7:81:00:94:90:f3:5d:f8:66:68:76:d9:3b:
         d7:ae:81:4e:8a:9d:61:20:a7:ee:fc:4d:94:5f:13:10:d0:fa:
         aa:ec:34:7b:de:17:fa:1e:b2:ef:c0:ee:65:9f:a8:22:55:8b:
         96:6c:50:df:66:c3:cb:f5:4e:69:5b:d2:b9:3a:31:e9:dd:03:
         0c:0c:bd:7a:75:81:46:cf:83:df:f1:fd:09:9b:0a:26:7a:67:
         56:ef:53:cf:ed:b9:c3:14:3a:7b:b7:30:8d:ff:82:12:c2:99:
         f5:e4:f1:7f:e2:1f:fa:f8:77:e9:2a:e0:2e:15:10:68:88:c6:
         80:89:e4:7c:7a:a5:81:de:a3:33:74:74:a8:03:07:10:db:60:
         9a:08:e8:5c:e3:92:e7:c0:8f:99:34:94:76:5d:9e:ea:7a:3b:
         8d:49:f8:8e:95:57:27:6e:a8:15:b6:ec:ac:5c:88:13:b0:6a:
         49:1f:f1:37:0a:67:d4:76:19:ca:8b:d8:4b:7e:ca:56:7a:11:
         bc:3e:45:0f:70:07:f2:94:78:1f:c7:d5:70:d5:b0:30:32:c5:
         be:58:98:50:bf:99:f6:b2:e8:45:43:b9:55:34:bd:7a:e4:5f:
         d8:7c:2b:f5:f3:ed:27:3f:dc:2f:a3:97:ae:0f:3f:61:27:ae:
         54:66:f9:55:4e:bf:6c:68:31:5e:2f:75:29:b0:ed:ef:6d:28:
         c8:27:a3:09:36:56:0b:5c:47:da:f7:2d:65:20:24:4c:ec:ce:
         86:ae:72:47:16:27:9b:87:56:3e:59:63:aa:a9:a9:0c:8e:44:
         40:92:92:2a:02:af:05:81:f3:9e:e7:00:bc:4b:80:db:44:29:
         de:2c:f6:29:5f:04:7d:3b:54:55:ca:fb:cc:9a:b6:f2:d8:a7:
         21:14:e5:97:b8:ea:dd:dc:6d:b3:92:c1:7d:4f:3e:1f:d7:f5:
         fe:7b:e2:38:68:e4:09:fb:84:fd:4e:73:9b:c0:c3:31:1f:4a:
         a8:b9:1e:da:0b:79:18:a5:5e:8f:a5:73:70:a9:9b:e7:28:92:
         5b:9c:08:a7:91:3e:f4:9d:c1:98:6d:7f:e0:e6:41:d8:7c:79:
         00:31:ef:02:e0:39:93:44
-----BEGIN CERTIFICATE-----
MIIEfjCCAmagAwIBAgICEAAwDQYJKoZIhvcNAQELBQAwZTELMAkGA1UEBhMCTFUx
EDAOBgNVBAgMB1ByaXZhdGUxEDAOBgNVBAcMB1ByaXZhdGUxFzAVBgNVBAoMDkNp
bmV4cGVydC10ZXN0MRkwFwYDVQQDDBBDaW5leHBlcnRDQS10ZXN0MB4XDTI0MDUy
NDA5NTUyMFoXDTM0MDUyMjA5NTUyMFowYTEXMBUGA1UECgwOQ2luZVhwZXJ0LXRl
c3QxJzAlBgNVBAsMHkNpbmVYcGVydC1Mb2NhbC1lLVRNUy0wMDMtdGVzdDEdMBsG
A1UEAwwUQ2luZVhwZXJ0LmxvY2FsLXRlc3QwggEiMA0GCSqGSIb3DQEBAQUAA4IB
DwAwggEKAoIBAQDNfXLdToYLLlgYw/JhLQlPLsXGsTHQCqMXgMD0QNHD3IG67NDi
IltyDIn+v4rJITCOj6zvCOOZTQW/a22ucZJYSxGtFuFmXjQbRMtOSAr2fD18c/wd
GGBni7ZfzCC5/icS4qbUb0cGYmNM/nn2Y5z0X2W8qhM0uuUeGuq+HlMIOquhi9iK
sLERBj9wRO6t/fev09M1/4k/J1JuUBfDjNroNkXBMEsPkmZdBICOjFFvFVtg8dNV
oDm07P1uQwtyAnuc9XfL+MIkNZfSyFuzC5QbSJKWha8As/dbS2gudRyZPxJJeRPD
l2Y2OZi1cBVnwK6KPkX53MOECssOHhddciznAgMBAAGjPDA6MAkGA1UdEwQCMAAw
CwYDVR0PBAQDAgXgMA8GCCsGAQQBzg8BBAMMATEwDwYIKwYBBAHODwIEAwwBMTAN
BgkqhkiG9w0BAQsFAAOCAgEAsHIKuyarvGuabjgK727mjqOnIlH+v2FsWxijpJyP
EecJyqHUZHRi5HoKnL7SvxtSCP0W6gNoJTWvdeNKe7qMtkiuwL+CbDFmq25onwVz
AJQhttIDpMd4fxU2D356kdDXgQCUkPNd+GZodtk7166BToqdYSCn7vxNlF8TEND6
quw0e94X+h6y78DuZZ+oIlWLlmxQ32bDy/VOaVvSuTox6d0DDAy9enWBRs+D3/H9
CZsKJnpnVu9Tz+25wxQ6e7cwjf+CEsKZ9eTxf+If+vh36SrgLhUQaIjGgInkfHql
gd6jM3R0qAMHENtgmgjoXOOS58CPmTSUdl2e6no7jUn4jpVXJ26oFbbsrFyIE7Bq
SR/xNwpn1HYZyovYS37KVnoRvD5FD3AH8pR4H8fVcNWwMDLFvliYUL+Z9rLoRUO5
VTS9euRf2Hwr9fPtJz/cL6OXrg8/YSeuVGb5VU6/bGgxXi91KbDt720oyCejCTZW
C1xH2vctZSAkTOzOhq5yRxYnm4dWPlljqqmpDI5EQJKSKgKvBYHznucAvEuA20Qp
3iz2KV8EfTtUVcr7zJq28tinIRTll7jq3dxts5LBfU8+H9f1/nviOGjkCfuE/U5z
m8DDMR9KqLke2gt5GKVej6VzcKmb5yiSW5wIp5E+9J3BmG1/4OZB2Hx5ADHvAuA5
k0Q=
-----END CERTIFICATE-----
