Certificate:
    Data:
        Version: 3 (0x2)
        Serial Number: 4097 (0x1001)
    Signature Algorithm: sha256WithRSAEncryption
        Issuer: C=LU, ST=Private, L=Private, O=Cinexpert-test, CN=CinexpertCA-test
        Validity
            Not Before: May 24 09:59:44 2024 GMT
            Not After : May 25 09:59:44 2024 GMT
        Subject: O=CineXpert-test, OU=CineXpert-Local-e-TMS-001-test, CN=CineXpert.local-test
        Subject Public Key Info:
            Public Key Algorithm: rsaEncryption
                RSA Public-Key: (2048 bit)
                Modulus:
                    00:be:d7:df:12:6b:8c:23:ed:33:8f:45:77:6f:24:
                    82:f7:77:3b:35:d8:63:a8:46:99:4b:7c:b3:72:fd:
                    8a:ff:f3:06:76:08:4f:7a:f3:3a:e5:d9:d7:0c:70:
                    ae:b9:f6:39:33:7e:78:fe:a1:87:24:80:9b:c7:38:
                    ed:c3:34:65:82:8c:19:e6:65:bf:7d:fb:b0:9e:cf:
                    86:76:3b:bf:64:18:fd:df:3e:4d:0f:f7:4c:1c:e1:
                    23:5b:87:80:3c:d7:76:ef:54:2a:d0:5d:3d:0c:cf:
                    a1:0c:30:ef:bb:0c:ec:1c:6a:38:4f:2f:67:a3:b0:
                    30:05:40:c5:7b:5b:d7:2a:60:0c:e4:46:c4:54:7f:
                    cb:d0:6b:52:11:00:da:4a:91:83:d9:10:67:dc:80:
                    3b:f3:c2:ab:ee:3f:82:18:a8:74:09:36:e4:c9:58:
                    cc:16:88:4d:1b:96:8f:19:3a:63:8b:66:de:e7:33:
                    03:67:8d:91:cd:53:fc:50:79:cb:02:09:e7:4a:ba:
                    4d:79:82:75:e0:31:d6:c1:75:02:76:67:02:70:c6:
                    c6:f1:d9:c6:ae:d3:c8:a9:6a:7b:11:e8:eb:36:3f:
                    32:c5:4e:52:64:f9:71:b9:05:d0:e6:d3:64:9a:b7:
                    e0:90:e0:f5:cc:62:58:28:85:c4:5b:7c:ce:bf:81:
                    09:69
                Exponent: 65537 (0x10001)
        X509v3 extensions:
            X509v3 Basic Constraints: 
                CA:FALSE
            X509v3 Key Usage: 
                Digital Signature, Non Repudiation, Key Encipherment
            1.3.6.1.4.1.9999.1: 
                ..1
            1.3.6.1.4.1.9999.2: 
                ..1
    Signature Algorithm: sha256WithRSAEncryption
         a3:e2:83:9f:dd:03:6b:a8:91:7e:98:a2:64:cd:f9:4a:af:0a:
         35:db:90:a6:c7:c0:ee:18:9e:0e:c3:b8:a2:e5:c4:16:15:3a:
         57:d0:18:a4:cc:d7:83:97:31:c7:dc:0e:a3:a8:71:3e:19:d2:
         6e:08:5b:21:85:47:e6:89:30:cd:09:0f:08:2a:a4:95:ad:2c:
         81:68:88:f7:92:f9:92:fc:3e:83:1f:48:91:f5:5a:69:f7:67:
         90:7e:06:61:b9:b1:ce:13:dd:ef:a0:74:cd:87:18:86:d3:27:
         8d:02:83:cd:e2:a2:c5:76:71:fb:b5:28:ad:e2:66:00:2b:04:
         e5:a9:f8:92:5d:ab:3d:9d:16:73:ba:f8:cd:51:3b:05:06:3e:
         90:16:6c:c6:0b:ce:fa:33:0b:6f:b0:56:18:04:b6:3f:89:25:
         a9:7d:03:8d:e2:b3:4f:82:48:d6:9e:a8:63:5c:7e:b9:64:96:
         c3:6e:98:3d:f8:c0:79:bc:89:d4:50:66:d9:3c:da:43:1b:c0:
         50:85:0d:40:18:66:88:6e:b7:b0:17:96:98:ce:13:ad:c5:03:
         c7:a5:f2:f0:f0:2d:a1:b5:44:6c:ba:ce:bb:97:11:1f:d7:a3:
         0b:d2:fb:68:1f:88:fb:12:c5:5f:83:01:5e:66:f7:ab:f8:78:
         cf:c8:28:3d:0c:bc:98:37:a1:70:84:39:af:10:05:a5:54:0e:
         82:fc:ca:ec:f8:e3:1a:95:87:ad:cc:ba:60:2e:30:19:2b:b3:
         52:e3:95:55:31:ef:c4:91:c3:6d:a3:26:fd:00:53:9f:eb:93:
         b9:17:01:bb:9f:2d:85:ea:41:c2:06:10:f4:cd:fa:df:6d:19:
         03:90:16:5a:c6:d3:0d:25:82:db:31:78:ce:41:92:54:1a:0a:
         b1:78:af:f2:87:26:02:c3:97:50:8d:4e:cd:67:29:f0:b0:2f:
         7a:0e:3e:b3:75:01:5f:ae:d0:eb:a9:c9:f3:eb:c5:8d:22:60:
         43:d8:b3:01:b8:b8:8a:25:02:50:78:db:27:bf:d5:28:08:31:
         4e:8e:6d:a5:f9:b4:3e:3d:c1:53:5a:2a:8b:23:8c:1e:52:cb:
         f6:92:e7:d3:dc:0f:ab:eb:77:0c:7f:fb:84:a7:72:95:42:d3:
         34:c0:f4:96:77:8f:8b:c9:33:57:2a:f3:55:45:b5:0b:a3:38:
         c3:d6:7c:de:db:d3:aa:96:c3:db:8b:78:c3:1a:ad:94:04:c1:
         81:fe:52:4d:a9:b3:dd:a8:34:29:82:23:e2:64:51:fe:b9:8a:
         ec:18:f0:c3:0f:fc:54:1a:fd:7f:dd:97:37:70:c9:d6:7a:70:
         d3:d5:0b:3b:c5:15:ee:5d
-----BEGIN CERTIFICATE-----
MIIEfjCCAmagAwIBAgICEAEwDQYJKoZIhvcNAQELBQAwZTELMAkGA1UEBhMCTFUx
EDAOBgNVBAgMB1ByaXZhdGUxEDAOBgNVBAcMB1ByaXZhdGUxFzAVBgNVBAoMDkNp
bmV4cGVydC10ZXN0MRkwFwYDVQQDDBBDaW5leHBlcnRDQS10ZXN0MB4XDTI0MDUy
NDA5NTk0NFoXDTI0MDUyNTA5NTk0NFowYTEXMBUGA1UECgwOQ2luZVhwZXJ0LXRl
c3QxJzAlBgNVBAsMHkNpbmVYcGVydC1Mb2NhbC1lLVRNUy0wMDEtdGVzdDEdMBsG
A1UEAwwUQ2luZVhwZXJ0LmxvY2FsLXRlc3QwggEiMA0GCSqGSIb3DQEBAQUAA4IB
DwAwggEKAoIBAQC+198Sa4wj7TOPRXdvJIL3dzs12GOoRplLfLNy/Yr/8wZ2CE96
8zrl2dcMcK659jkzfnj+oYckgJvHOO3DNGWCjBnmZb99+7Cez4Z2O79kGP3fPk0P
90wc4SNbh4A813bvVCrQXT0Mz6EMMO+7DOwcajhPL2ejsDAFQMV7W9cqYAzkRsRU
f8vQa1IRANpKkYPZEGfcgDvzwqvuP4IYqHQJNuTJWMwWiE0blo8ZOmOLZt7nMwNn
jZHNU/xQecsCCedKuk15gnXgMdbBdQJ2ZwJwxsbx2cau08ipansR6Os2PzLFTlJk
+XG5BdDm02Sat+CQ4PXMYlgohcRbfM6/gQlpAgMBAAGjPDA6MAkGA1UdEwQCMAAw
CwYDVR0PBAQDAgXgMA8GCCsGAQQBzg8BBAMMATEwDwYIKwYBBAHODwIEAwwBMTAN
BgkqhkiG9w0BAQsFAAOCAgEAo+KDn90Da6iRfpiiZM35Sq8KNduQpsfA7hieDsO4
ouXEFhU6V9AYpMzXg5cxx9wOo6hxPhnSbghbIYVH5okwzQkPCCqkla0sgWiI95L5
kvw+gx9IkfVaafdnkH4GYbmxzhPd76B0zYcYhtMnjQKDzeKixXZx+7UoreJmACsE
5an4kl2rPZ0Wc7r4zVE7BQY+kBZsxgvO+jMLb7BWGAS2P4klqX0DjeKzT4JI1p6o
Y1x+uWSWw26YPfjAebyJ1FBm2TzaQxvAUIUNQBhmiG63sBeWmM4TrcUDx6Xy8PAt
obVEbLrOu5cRH9ejC9L7aB+I+xLFX4MBXmb3q/h4z8goPQy8mDehcIQ5rxAFpVQO
gvzK7PjjGpWHrcy6YC4wGSuzUuOVVTHvxJHDbaMm/QBTn+uTuRcBu58thepBwgYQ
9M36320ZA5AWWsbTDSWC2zF4zkGSVBoKsXiv8ocmAsOXUI1OzWcp8LAveg4+s3UB
X67Q66nJ8+vFjSJgQ9izAbi4iiUCUHjbJ7/VKAgxTo5tpfm0Pj3BU1oqiyOMHlLL
9pLn09wPq+t3DH/7hKdylULTNMD0lnePi8kzVyrzVUW1C6M4w9Z83tvTqpbD24t4
wxqtlATBgf5STamz3ag0KYIj4mRR/rmK7Bjwww/8VBr9f92XN3DJ1npw09ULO8UV
7l0=
-----END CERTIFICATE-----
