Certificate:
    Data:
        Version: 3 (0x2)
        Serial Number: 4097 (0x1001)
    Signature Algorithm: sha256WithRSAEncryption
        Issuer: C=LU, ST=Private, L=Private, O=Cinexpert-test, CN=CinexpertCA-test
        Validity
            Not Before: May 24 09:31:31 2024 GMT
            Not After : May 22 09:31:31 2034 GMT
        Subject: O=CineXpert-test, OU=CineXpert-Local-e-TMS-002-test, CN=CineXpert.local-test
        Subject Public Key Info:
            Public Key Algorithm: rsaEncryption
                RSA Public-Key: (2048 bit)
                Modulus:
                    00:cd:6d:7c:a6:95:7e:e6:fa:15:1e:64:ae:0f:e2:
                    7e:56:77:8d:5d:e5:8b:fd:75:12:3b:98:7e:d0:f9:
                    66:38:e1:00:bd:f1:81:11:ca:01:59:69:03:68:95:
                    13:e7:3e:31:f6:75:0d:28:75:83:c2:18:b2:64:9f:
                    1b:9c:f4:74:cc:05:04:8a:aa:65:32:83:08:7e:01:
                    1b:d3:8d:6c:f0:f5:92:b8:c0:65:ad:c5:8d:ba:8d:
                    d4:b1:f1:1c:01:c4:f3:ff:40:f3:ac:77:d7:8c:b8:
                    f2:df:c4:38:e1:b9:56:3f:49:4f:2a:76:af:51:9d:
                    8b:5f:7f:c0:5b:c4:92:e2:b4:07:6b:fe:a5:31:25:
                    5d:18:f3:6f:e3:b8:60:1f:84:58:e5:1b:55:ff:87:
                    34:4c:b8:f5:7a:88:23:06:47:42:23:46:68:9b:78:
                    52:6f:35:68:28:87:80:e2:5e:2d:6b:b9:02:b2:98:
                    87:72:c8:e0:df:7a:fc:4c:15:cf:7a:a5:fb:27:f0:
                    6a:a1:1b:0a:9c:95:d6:b9:fb:7c:30:54:e6:4b:7e:
                    ef:37:4a:94:f0:a1:6d:a4:c1:ce:1f:d0:80:6d:66:
                    5f:81:eb:0f:04:de:b9:f4:31:6f:d7:ef:f1:72:b9:
                    82:82:f0:f3:66:42:b0:7f:ec:8c:34:76:b2:30:e5:
                    d9:53
                Exponent: 65537 (0x10001)
        X509v3 extensions:
            X509v3 Basic Constraints: 
                CA:FALSE
            X509v3 Key Usage: 
                Digital Signature, Non Repudiation, Key Encipherment
            1.3.6.1.4.1.9999.1: 
                ..10
            1.3.6.1.4.1.9999.2: 
                ..10
    Signature Algorithm: sha256WithRSAEncryption
         5e:bb:23:56:ca:f0:8f:da:fd:51:48:42:a4:60:54:33:b5:00:
         95:19:ef:77:de:7a:0e:93:23:5c:b1:cd:c6:53:35:ba:64:b0:
         0c:f1:0a:2e:59:6f:f5:a4:64:4f:55:da:31:c1:5a:3f:91:dd:
         32:bb:fb:ce:1c:e5:c4:6b:27:25:5e:a9:83:ba:bc:a3:39:47:
         82:21:d4:94:bc:e1:3b:24:47:d2:28:38:53:95:9f:e8:a8:5e:
         4d:e3:e1:e7:fa:f8:b8:f0:e9:7a:44:02:3b:b6:cf:55:f4:95:
         a4:9f:09:a8:bd:bf:07:c1:bc:2b:9d:de:cb:57:e3:bf:9a:13:
         01:78:f9:65:05:3f:b3:3a:d9:b2:90:c2:dd:73:65:9d:68:c0:
         e5:4e:f4:64:b1:36:3e:b7:0c:78:e1:22:dd:a0:e9:13:95:7e:
         71:a1:8a:a3:57:96:5d:b6:6c:70:31:5d:10:5b:b8:7e:07:29:
         76:ce:06:ae:e4:1b:04:43:f9:50:f7:44:26:e9:44:45:58:cc:
         ac:56:64:41:be:f2:97:4f:57:ef:24:6f:bc:ff:7d:39:7d:f7:
         be:2f:31:9d:3f:fb:d2:5e:c1:51:f0:0c:e3:65:b3:c3:17:30:
         8a:c1:b3:7f:af:fa:d4:74:fc:a9:ed:45:08:ab:3b:ea:19:09:
         ee:d5:e3:a2:c4:b3:53:71:41:9d:ca:8b:dc:9a:13:10:56:c0:
         84:5e:7b:68:35:4b:c7:67:47:a0:0c:fa:03:c7:12:b7:f0:35:
         39:e1:82:cb:fa:ce:98:49:2f:37:bb:4c:ad:b3:7e:49:c8:03:
         cf:e6:e5:f9:54:89:80:00:47:8d:86:2b:8f:96:5d:e9:30:04:
         db:da:fc:d8:e5:a0:50:cf:57:b8:77:4b:6f:7b:ba:dc:34:cb:
         a6:06:67:11:e5:2e:69:ff:88:93:ef:95:5b:19:bb:f1:9b:d1:
         8e:ae:ac:71:05:a2:55:7d:b4:66:ff:3a:45:67:67:01:da:05:
         26:db:4a:3d:33:ae:3f:d6:72:07:85:7d:68:0b:dd:46:1e:05:
         f5:a6:b4:79:63:5f:d8:24:66:04:6b:3b:d3:70:a1:62:46:92:
         2f:bb:2e:c0:5e:ec:fd:93:07:d5:90:16:17:a1:95:f3:ba:5c:
         09:4f:b9:1d:ea:c4:c7:f1:d3:61:ae:50:60:00:be:48:d3:4f:
         61:59:3a:1a:46:4c:12:b0:c9:4e:df:aa:de:17:97:28:39:0c:
         3a:b8:ab:84:b5:eb:03:24:24:99:1d:3a:d1:2d:c0:50:1e:9d:
         57:7f:ba:4c:18:c9:1f:61:a6:6f:42:2f:2b:49:80:cb:cf:5b:
         67:e7:b6:c5:4a:a1:83:17
-----BEGIN CERTIFICATE-----
MIIEgDCCAmigAwIBAgICEAEwDQYJKoZIhvcNAQELBQAwZTELMAkGA1UEBhMCTFUx
EDAOBgNVBAgMB1ByaXZhdGUxEDAOBgNVBAcMB1ByaXZhdGUxFzAVBgNVBAoMDkNp
bmV4cGVydC10ZXN0MRkwFwYDVQQDDBBDaW5leHBlcnRDQS10ZXN0MB4XDTI0MDUy
NDA5MzEzMVoXDTM0MDUyMjA5MzEzMVowYTEXMBUGA1UECgwOQ2luZVhwZXJ0LXRl
c3QxJzAlBgNVBAsMHkNpbmVYcGVydC1Mb2NhbC1lLVRNUy0wMDItdGVzdDEdMBsG
A1UEAwwUQ2luZVhwZXJ0LmxvY2FsLXRlc3QwggEiMA0GCSqGSIb3DQEBAQUAA4IB
DwAwggEKAoIBAQDNbXymlX7m+hUeZK4P4n5Wd41d5Yv9dRI7mH7Q+WY44QC98YER
ygFZaQNolRPnPjH2dQ0odYPCGLJknxuc9HTMBQSKqmUygwh+ARvTjWzw9ZK4wGWt
xY26jdSx8RwBxPP/QPOsd9eMuPLfxDjhuVY/SU8qdq9RnYtff8BbxJLitAdr/qUx
JV0Y82/juGAfhFjlG1X/hzRMuPV6iCMGR0IjRmibeFJvNWgoh4DiXi1ruQKymIdy
yODfevxMFc96pfsn8GqhGwqclda5+3wwVOZLfu83SpTwoW2kwc4f0IBtZl+B6w8E
3rn0MW/X7/FyuYKC8PNmQrB/7Iw0drIw5dlTAgMBAAGjPjA8MAkGA1UdEwQCMAAw
CwYDVR0PBAQDAgXgMBAGCCsGAQQBzg8BBAQMAjEwMBAGCCsGAQQBzg8CBAQMAjEw
MA0GCSqGSIb3DQEBCwUAA4ICAQBeuyNWyvCP2v1RSEKkYFQztQCVGe933noOkyNc
sc3GUzW6ZLAM8QouWW/1pGRPVdoxwVo/kd0yu/vOHOXEayclXqmDuryjOUeCIdSU
vOE7JEfSKDhTlZ/oqF5N4+Hn+vi48Ol6RAI7ts9V9JWknwmovb8Hwbwrnd7LV+O/
mhMBePllBT+zOtmykMLdc2WdaMDlTvRksTY+twx44SLdoOkTlX5xoYqjV5Zdtmxw
MV0QW7h+Byl2zgau5BsEQ/lQ90Qm6URFWMysVmRBvvKXT1fvJG+8/305ffe+LzGd
P/vSXsFR8AzjZbPDFzCKwbN/r/rUdPyp7UUIqzvqGQnu1eOixLNTcUGdyovcmhMQ
VsCEXntoNUvHZ0egDPoDxxK38DU54YLL+s6YSS83u0yts35JyAPP5uX5VImAAEeN
hiuPll3pMATb2vzY5aBQz1e4d0tve7rcNMumBmcR5S5p/4iT75VbGbvxm9GOrqxx
BaJVfbRm/zpFZ2cB2gUm20o9M64/1nIHhX1oC91GHgX1prR5Y1/YJGYEazvTcKFi
RpIvuy7AXuz9kwfVkBYXoZXzulwJT7kd6sTH8dNhrlBgAL5I009hWToaRkwSsMlO
36reF5coOQw6uKuEtesDJCSZHTrRLcBQHp1Xf7pMGMkfYaZvQi8rSYDLz1tn57bF
SqGDFw==
-----END CERTIFICATE-----
