Certificate:
    Data:
        Version: 3 (0x2)
        Serial Number: 4098 (0x1002)
    Signature Algorithm: sha256WithRSAEncryption
        Issuer: C=LU, ST=Private, L=Private, O=Cinexpert-test, CN=CinexpertCA-test
        Validity
            Not Before: May 22 12:31:42 2032 GMT
            Not After : May 20 12:31:42 2042 GMT
        Subject: O=CineXpert-test, OU=CineXpert-Local-e-TMS-004-test, CN=CineXpert.local-test
        Subject Public Key Info:
            Public Key Algorithm: rsaEncryption
                RSA Public-Key: (2048 bit)
                Modulus:
                    00:bc:a8:5d:7b:97:e4:35:20:72:ca:de:84:93:8e:
                    9d:8e:60:fb:55:f0:da:43:0f:c4:41:79:de:54:69:
                    fa:35:fe:41:1c:75:b0:3e:8f:1f:90:18:13:72:96:
                    00:22:80:ac:b0:e9:ae:20:4c:42:bb:69:ad:72:ce:
                    75:6d:24:a9:0e:7b:e2:7b:13:49:7d:81:e4:3c:d1:
                    08:60:9c:94:e1:3e:d3:49:d4:b6:94:cb:5c:2f:45:
                    c7:88:1e:a1:3e:7d:ea:93:1b:a0:5d:37:cf:73:43:
                    f6:47:fb:32:94:26:07:a4:1a:e7:d9:93:00:c8:07:
                    b5:22:0f:56:f4:9d:38:a5:5f:cc:96:5e:d2:a8:fc:
                    c6:c5:1e:79:45:45:e8:1d:e1:4c:82:c6:1a:1e:42:
                    d0:e8:b6:43:30:6a:61:47:a6:60:39:ce:12:09:ed:
                    71:29:93:57:af:d1:ab:bd:78:62:4e:4e:02:6a:44:
                    68:22:95:15:aa:97:00:85:d9:c1:bd:2f:0a:3d:51:
                    57:8f:dd:6b:1c:f6:8f:65:60:5f:ba:9a:11:be:35:
                    43:17:18:da:dc:ab:10:c6:59:a8:bc:77:38:77:d1:
                    0f:fb:d1:2a:ae:39:e9:0b:cd:ba:67:a2:15:75:9b:
                    bb:13:d0:af:12:74:9e:6f:a4:35:83:e4:8d:bf:61:
                    19:1d
                Exponent: 65537 (0x10001)
        X509v3 extensions:
            X509v3 Basic Constraints: 
                CA:FALSE
            X509v3 Key Usage: 
                Digital Signature, Non Repudiation, Key Encipherment
            1.3.6.1.4.1.9999.1: 
                ..1
            1.3.6.1.4.1.9999.2: 
                ..1
    Signature Algorithm: sha256WithRSAEncryption
         10:2f:15:c4:eb:aa:52:7a:79:a2:a4:4f:cc:1f:cf:a9:1a:9e:
         13:5f:86:93:83:39:25:d6:ea:8a:3e:2b:1c:98:c6:a0:54:61:
         49:85:d7:a8:0d:cd:de:2b:9a:77:26:ba:3b:35:30:78:93:64:
         25:ff:64:66:18:e1:d4:e8:c9:4f:fe:28:7d:b4:7e:3c:53:cb:
         65:9c:6a:d9:1b:e9:58:29:d5:74:61:ed:fd:33:96:a9:c4:61:
         9d:09:03:5f:ab:84:2c:06:85:ff:23:bd:0b:44:be:30:0b:49:
         62:b6:96:f2:74:51:0d:a6:83:bf:06:49:a9:01:66:31:06:4e:
         2f:92:95:bd:24:25:d9:6e:15:de:47:1b:55:33:31:e4:be:c2:
         3f:c3:96:3d:29:02:8d:cf:fb:1a:ac:84:0c:df:1e:44:19:cc:
         4b:46:e9:8a:5f:8b:99:4a:7c:e7:0d:71:25:15:51:c6:30:8f:
         69:86:60:be:d9:63:66:fa:ad:99:d5:b6:16:3f:4c:20:b3:1a:
         23:d7:04:62:58:c5:88:c1:e4:19:dc:3e:e2:d1:c2:02:e5:d8:
         3a:d4:dd:81:59:97:bc:fb:08:6b:90:e7:46:bf:15:8a:17:9e:
         25:90:de:29:e6:37:4e:9c:84:ff:89:a6:d6:7f:4a:1f:45:41:
         5e:9b:b4:a1:29:80:8b:45:16:8e:35:f8:88:03:d6:e4:8a:70:
         c3:d3:10:31:da:ec:70:82:1f:9d:b9:bf:30:67:ce:1e:5c:77:
         7f:ef:34:aa:5f:7c:e5:98:1c:5a:33:6d:a0:93:d9:d0:80:94:
         60:0d:e0:dd:b2:43:72:e0:31:dd:7d:9f:4d:9f:d8:43:ae:aa:
         31:3c:10:62:27:22:d2:3a:23:4c:9e:f6:f6:2d:8e:a6:ea:98:
         07:f6:e3:5b:d4:6b:ad:e9:6f:5d:88:19:6d:d7:f7:b3:02:bb:
         13:40:ad:84:f8:a1:ed:8a:06:93:16:04:b2:73:e1:c7:82:02:
         c1:28:de:97:25:2e:01:67:6a:aa:bd:cc:c1:8e:4b:8a:aa:30:
         fa:9a:7d:22:46:5d:58:d8:4a:e2:7e:e6:f7:ad:20:69:5e:a9:
         3a:46:c1:bd:a8:18:98:1b:a3:52:53:cd:1b:c7:92:65:e3:15:
         e8:47:02:fe:2e:92:ec:cf:b2:18:3f:5f:65:aa:84:d1:c2:f4:
         e2:3e:89:c7:4e:fc:09:33:b2:a0:b0:0e:b0:22:6d:a6:3d:24:
         eb:9b:11:6f:42:64:ff:98:0e:7d:5a:48:a4:0f:23:b7:82:e8:
         58:96:f9:75:e9:23:e9:04:fa:a8:8a:f4:4a:20:cc:03:42:d0:
         b1:23:25:d9:7f:31:62:8e
-----BEGIN CERTIFICATE-----
MIIEfjCCAmagAwIBAgICEAIwDQYJKoZIhvcNAQELBQAwZTELMAkGA1UEBhMCTFUx
EDAOBgNVBAgMB1ByaXZhdGUxEDAOBgNVBAcMB1ByaXZhdGUxFzAVBgNVBAoMDkNp
bmV4cGVydC10ZXN0MRkwFwYDVQQDDBBDaW5leHBlcnRDQS10ZXN0MB4XDTMyMDUy
MjEyMzE0MloXDTQyMDUyMDEyMzE0MlowYTEXMBUGA1UECgwOQ2luZVhwZXJ0LXRl
c3QxJzAlBgNVBAsMHkNpbmVYcGVydC1Mb2NhbC1lLVRNUy0wMDQtdGVzdDEdMBsG
A1UEAwwUQ2luZVhwZXJ0LmxvY2FsLXRlc3QwggEiMA0GCSqGSIb3DQEBAQUAA4IB
DwAwggEKAoIBAQC8qF17l+Q1IHLK3oSTjp2OYPtV8NpDD8RBed5Uafo1/kEcdbA+
jx+QGBNylgAigKyw6a4gTEK7aa1yznVtJKkOe+J7E0l9geQ80QhgnJThPtNJ1LaU
y1wvRceIHqE+feqTG6BdN89zQ/ZH+zKUJgekGufZkwDIB7UiD1b0nTilX8yWXtKo
/MbFHnlFRegd4UyCxhoeQtDotkMwamFHpmA5zhIJ7XEpk1ev0au9eGJOTgJqRGgi
lRWqlwCF2cG9Lwo9UVeP3Wsc9o9lYF+6mhG+NUMXGNrcqxDGWai8dzh30Q/70Squ
OekLzbpnohV1m7sT0K8SdJ5vpDWD5I2/YRkdAgMBAAGjPDA6MAkGA1UdEwQCMAAw
CwYDVR0PBAQDAgXgMA8GCCsGAQQBzg8BBAMMATEwDwYIKwYBBAHODwIEAwwBMTAN
BgkqhkiG9w0BAQsFAAOCAgEAEC8VxOuqUnp5oqRPzB/PqRqeE1+Gk4M5Jdbqij4r
HJjGoFRhSYXXqA3N3iuadya6OzUweJNkJf9kZhjh1OjJT/4ofbR+PFPLZZxq2Rvp
WCnVdGHt/TOWqcRhnQkDX6uELAaF/yO9C0S+MAtJYraW8nRRDaaDvwZJqQFmMQZO
L5KVvSQl2W4V3kcbVTMx5L7CP8OWPSkCjc/7GqyEDN8eRBnMS0bpil+LmUp85w1x
JRVRxjCPaYZgvtljZvqtmdW2Fj9MILMaI9cEYljFiMHkGdw+4tHCAuXYOtTdgVmX
vPsIa5DnRr8ViheeJZDeKeY3TpyE/4mm1n9KH0VBXpu0oSmAi0UWjjX4iAPW5Ipw
w9MQMdrscIIfnbm/MGfOHlx3f+80ql985ZgcWjNtoJPZ0ICUYA3g3bJDcuAx3X2f
TZ/YQ66qMTwQYici0jojTJ729i2OpuqYB/bjW9RrrelvXYgZbdf3swK7E0CthPih
7YoGkxYEsnPhx4ICwSjelyUuAWdqqr3MwY5Liqow+pp9IkZdWNhK4n7m960gaV6p
OkbBvagYmBujUlPNG8eSZeMV6EcC/i6S7M+yGD9fZaqE0cL04j6Jx078CTOyoLAO
sCJtpj0k65sRb0Jk/5gOfVpIpA8jt4LoWJb5dekj6QT6qIr0SiDMA0LQsSMl2X8x
Yo4=
-----END CERTIFICATE-----
